; ModuleID = 'source-C-CXX/9/9.cpp'
source_filename = "source-C-CXX/9/9.cpp"
target datalayout = "e-m:e-p270:32:32-p271:32:32-p272:64:64-i64:64-f80:128-n8:16:32:64-S128"
target triple = "x86_64-pc-linux-gnu"

%"class.std::ios_base::Init" = type { i8 }
%"class.std::basic_istream" = type { i32 (...)**, i64, %"class.std::basic_ios" }
%"class.std::basic_ios" = type { %"class.std::ios_base", %"class.std::basic_ostream"*, i8, i8, %"class.std::basic_streambuf"*, %"class.std::ctype"*, %"class.std::num_put"*, %"class.std::num_get"* }
%"class.std::ios_base" = type { i32 (...)**, i64, i64, i32, i32, i32, %"struct.std::ios_base::_Callback_list"*, %"struct.std::ios_base::_Words", [8 x %"struct.std::ios_base::_Words"], i32, %"struct.std::ios_base::_Words"*, %"class.std::locale" }
%"struct.std::ios_base::_Callback_list" = type { %"struct.std::ios_base::_Callback_list"*, void (i32, %"class.std::ios_base"*, i32)*, i32, i32 }
%"struct.std::ios_base::_Words" = type { i8*, i64 }
%"class.std::locale" = type { %"class.std::locale::_Impl"* }
%"class.std::locale::_Impl" = type { i32, %"class.std::locale::facet"**, i64, %"class.std::locale::facet"**, i8** }
%"class.std::locale::facet" = type <{ i32 (...)**, i32, [4 x i8] }>
%"class.std::basic_ostream" = type { i32 (...)**, %"class.std::basic_ios" }
%"class.std::basic_streambuf" = type { i32 (...)**, i8*, i8*, i8*, i8*, i8*, i8*, %"class.std::locale" }
%"class.std::ctype" = type <{ %"class.std::locale::facet.base", [4 x i8], %struct.__locale_struct*, i8, [7 x i8], i32*, i32*, i16*, i8, [256 x i8], [256 x i8], i8, [6 x i8] }>
%"class.std::locale::facet.base" = type <{ i32 (...)**, i32 }>
%struct.__locale_struct = type { [13 x %struct.__locale_data*], i16*, i32*, i32*, [13 x i8*] }
%struct.__locale_data = type opaque
%"class.std::num_put" = type { %"class.std::locale::facet.base", [4 x i8] }
%"class.std::num_get" = type { %"class.std::locale::facet.base", [4 x i8] }

@_ZStL8__ioinit = internal global %"class.std::ios_base::Init" zeroinitializer, align 1
@__dso_handle = external hidden global i8
@k = dso_local global i32 0, align 4
@num = dso_local local_unnamed_addr global i32 0, align 4
@currH = dso_local local_unnamed_addr global i32 100000, align 4
@MaxNum = dso_local local_unnamed_addr global i32 0, align 4
@a = dso_local local_unnamed_addr global [100 x i32] zeroinitializer, align 16
@b = dso_local local_unnamed_addr global [100 x i32] zeroinitializer, align 16
@_ZSt3cin = external global %"class.std::basic_istream", align 8
@_ZSt4cout = external global %"class.std::basic_ostream", align 8
@llvm.global_ctors = appending global [1 x { i32, void ()*, i8* }] [{ i32, void ()*, i8* } { i32 65535, void ()* @_GLOBAL__sub_I_9.cpp, i8* null }]

declare void @_ZNSt8ios_base4InitC1Ev(%"class.std::ios_base::Init"* nonnull align 1 dereferenceable(1)) unnamed_addr #0

; Function Attrs: nounwind
declare void @_ZNSt8ios_base4InitD1Ev(%"class.std::ios_base::Init"* nonnull align 1 dereferenceable(1)) unnamed_addr #1

; Function Attrs: nofree nounwind
declare i32 @__cxa_atexit(void (i8*)*, i8*, i8*) local_unnamed_addr #2

; Function Attrs: mustprogress norecurse sspstrong uwtable
define dso_local i32 @main() local_unnamed_addr #3 {
  %1 = alloca i32, align 4
  call void @llvm.memset.p0i8.i64(i8* noundef nonnull align 16 dereferenceable(400) bitcast ([100 x i32]* @b to i8*), i8 0, i64 400, i1 false)
  %2 = tail call nonnull align 8 dereferenceable(16) %"class.std::basic_istream"* @_ZNSirsERi(%"class.std::basic_istream"* nonnull align 8 dereferenceable(16) @_ZSt3cin, i32* nonnull align 4 dereferenceable(4) @k)
  %3 = bitcast i32* %1 to i8*
  %4 = load i32, i32* @k, align 4, !tbaa !5
  %5 = icmp sgt i32 %4, 0
  br i1 %5, label %6, label %15

6:                                                ; preds = %0, %6
  %7 = phi i64 [ %11, %6 ], [ 0, %0 ]
  call void @llvm.lifetime.start.p0i8(i64 4, i8* nonnull %3) #8
  %8 = call nonnull align 8 dereferenceable(16) %"class.std::basic_istream"* @_ZNSirsERi(%"class.std::basic_istream"* nonnull align 8 dereferenceable(16) @_ZSt3cin, i32* nonnull align 4 dereferenceable(4) %1)
  %9 = load i32, i32* %1, align 4, !tbaa !5
  %10 = getelementptr inbounds [100 x i32], [100 x i32]* @a, i64 0, i64 %7
  store i32 %9, i32* %10, align 4, !tbaa !5
  call void @llvm.lifetime.end.p0i8(i64 4, i8* nonnull %3) #8
  %11 = add nuw nsw i64 %7, 1
  %12 = load i32, i32* @k, align 4, !tbaa !5
  %13 = sext i32 %12 to i64
  %14 = icmp slt i64 %11, %13
  br i1 %14, label %6, label %15, !llvm.loop !9

15:                                               ; preds = %6, %0
  %16 = call i32 @_Z3seti(i32 0)
  %17 = load i32, i32* @MaxNum, align 4, !tbaa !5
  %18 = call nonnull align 8 dereferenceable(8) %"class.std::basic_ostream"* @_ZNSolsEi(%"class.std::basic_ostream"* nonnull align 8 dereferenceable(8) @_ZSt4cout, i32 %17)
  ret i32 0
}

; Function Attrs: argmemonly mustprogress nofree nosync nounwind willreturn
declare void @llvm.lifetime.start.p0i8(i64 immarg, i8* nocapture) #4

declare nonnull align 8 dereferenceable(16) %"class.std::basic_istream"* @_ZNSirsERi(%"class.std::basic_istream"* nonnull align 8 dereferenceable(16), i32* nonnull align 4 dereferenceable(4)) local_unnamed_addr #0

; Function Attrs: argmemonly mustprogress nofree nosync nounwind willreturn
declare void @llvm.lifetime.end.p0i8(i64 immarg, i8* nocapture) #4

; Function Attrs: mustprogress nofree nosync nounwind sspstrong uwtable
define dso_local i32 @_Z3seti(i32 %0) local_unnamed_addr #5 {
  %2 = load i32, i32* @num, align 4, !tbaa !5
  %3 = load i32, i32* @currH, align 4, !tbaa !5
  %4 = load i32, i32* @k, align 4, !tbaa !5
  %5 = add nsw i32 %4, -1
  %6 = icmp eq i32 %5, %0
  %7 = sext i32 %0 to i64
  br i1 %6, label %8, label %17

8:                                                ; preds = %1
  %9 = getelementptr inbounds [100 x i32], [100 x i32]* @a, i64 0, i64 %7
  %10 = load i32, i32* %9, align 4, !tbaa !5
  %11 = icmp sle i32 %10, %3
  %12 = zext i1 %11 to i32
  %13 = add nsw i32 %2, %12
  %14 = load i32, i32* @MaxNum, align 4, !tbaa !5
  %15 = icmp sgt i32 %13, %14
  br i1 %15, label %16, label %40

16:                                               ; preds = %8
  store i32 %13, i32* @MaxNum, align 4, !tbaa !5
  br label %40

17:                                               ; preds = %1
  %18 = getelementptr inbounds [100 x i32], [100 x i32]* @b, i64 0, i64 %7
  %19 = load i32, i32* %18, align 4, !tbaa !5
  %20 = icmp eq i32 %19, 0
  br i1 %20, label %23, label %21

21:                                               ; preds = %17
  %22 = add nsw i32 %19, 1
  store i32 %22, i32* %18, align 4, !tbaa !5
  br label %39

23:                                               ; preds = %17
  %24 = add nsw i32 %0, 1
  %25 = tail call i32 @_Z3seti(i32 %24)
  %26 = load i32, i32* %18, align 4, !tbaa !5
  %27 = add nsw i32 %26, 1
  store i32 %27, i32* %18, align 4, !tbaa !5
  %28 = icmp eq i32 %26, 0
  br i1 %28, label %29, label %39

29:                                               ; preds = %23
  %30 = getelementptr inbounds [100 x i32], [100 x i32]* @a, i64 0, i64 %7
  %31 = load i32, i32* %30, align 4, !tbaa !5
  %32 = load i32, i32* @currH, align 4, !tbaa !5
  %33 = icmp sgt i32 %31, %32
  br i1 %33, label %37, label %34

34:                                               ; preds = %29
  store i32 %31, i32* @currH, align 4, !tbaa !5
  %35 = load i32, i32* @num, align 4, !tbaa !5
  %36 = add nsw i32 %35, 1
  store i32 %36, i32* @num, align 4, !tbaa !5
  br label %37

37:                                               ; preds = %34, %29
  %38 = tail call i32 @_Z3seti(i32 %24)
  br label %39

39:                                               ; preds = %21, %37, %23
  store i32 %2, i32* @num, align 4, !tbaa !5
  store i32 %3, i32* @currH, align 4, !tbaa !5
  store i32 0, i32* %18, align 4, !tbaa !5
  br label %40

40:                                               ; preds = %8, %16, %39
  ret i32 0
}

declare nonnull align 8 dereferenceable(8) %"class.std::basic_ostream"* @_ZNSolsEi(%"class.std::basic_ostream"* nonnull align 8 dereferenceable(8), i32) local_unnamed_addr #0

; Function Attrs: sspstrong uwtable
define internal void @_GLOBAL__sub_I_9.cpp() #6 section ".text.startup" {
  tail call void @_ZNSt8ios_base4InitC1Ev(%"class.std::ios_base::Init"* nonnull align 1 dereferenceable(1) @_ZStL8__ioinit)
  %1 = tail call i32 @__cxa_atexit(void (i8*)* bitcast (void (%"class.std::ios_base::Init"*)* @_ZNSt8ios_base4InitD1Ev to void (i8*)*), i8* getelementptr inbounds (%"class.std::ios_base::Init", %"class.std::ios_base::Init"* @_ZStL8__ioinit, i64 0, i32 0), i8* nonnull @__dso_handle) #8
  ret void
}

; Function Attrs: argmemonly nofree nounwind willreturn writeonly
declare void @llvm.memset.p0i8.i64(i8* nocapture writeonly, i8, i64, i1 immarg) #7


!llvm.module.flags = !{!0, !1, !2, !3}
!llvm.ident = !{!4}

!0 = !{i32 1, !"wchar_size", i32 4}
!1 = !{i32 7, !"PIC Level", i32 2}
!2 = !{i32 7, !"PIE Level", i32 2}
!3 = !{i32 7, !"uwtable", i32 1}
!4 = !{!"clang version 13.0.0"}
!5 = !{!6, !6, i64 0}
!6 = !{!"int", !7, i64 0}
!7 = !{!"omnipotent char", !8, i64 0}
!8 = !{!"Simple C++ TBAA"}
!9 = distinct !{!9, !10}
!10 = !{!"llvm.loop.mustprogress"}
